target datalayout = "e-m:e-p270:32:32-p271:32:32-p272:64:64-i64:64-i128:128-f80:128-n8:16:32:64-S128"
target triple = "x86_64-pc-linux-gnu"

%struct.ARKBBDPrecDataRec = type { i64, i64, i64, i64, double, ptr, ptr, ptr, ptr, ptr, ptr, ptr, ptr, ptr, ptr, i64, i64, i64, i64, ptr }
%struct.ARKLsMemRec = type { i32, i32, i32, ptr, ptr, i32, i32, double, double, ptr, ptr, ptr, ptr, ptr, ptr, ptr, i64, double, i64, i64, i64, i64, i64, i64, i64, i64, i64, double, ptr, ptr, ptr, ptr, i32, ptr, ptr, ptr, ptr, i32, ptr, ptr, i32 }

@.str = private unnamed_addr constant [122 x i8] c"generated/home/dtcxzyw/WorkSpace/Projects/compilers/llvm-opt-benchmark/bench/sundials/sundials/src/arkode/arkode_bbdpre.c\00", align 1
@.str.4 = private unnamed_addr constant [65 x i8] c"BBD peconditioner memory is NULL. ARKBBDPrecInit must be called.\00", align 1
@__func__.ARKBBDPrecGetWorkSpace = private unnamed_addr constant [23 x i8] c"ARKBBDPrecGetWorkSpace\00", align 1

; Function Attrs: nounwind uwtable
define i32 @ARKBBDPrecGetWorkSpace(ptr noundef %0, ptr noundef %1, ptr noundef %2) #0 {
  %4 = alloca i32, align 4
  %5 = alloca ptr, align 8
  %6 = alloca ptr, align 8
  %7 = alloca ptr, align 8
  %8 = alloca ptr, align 8
  %9 = alloca ptr, align 8
  %10 = alloca ptr, align 8
  %11 = alloca i32, align 4
  %12 = alloca i32, align 4
  store ptr %0, ptr %5, align 8, !tbaa !3
  store ptr %1, ptr %6, align 8, !tbaa !75
  store ptr %2, ptr %7, align 8, !tbaa !75
  call void @llvm.lifetime.start.p0(i64 8, ptr %8) #6
  call void @llvm.lifetime.start.p0(i64 8, ptr %9) #6
  call void @llvm.lifetime.start.p0(i64 8, ptr %10) #6
  call void @llvm.lifetime.start.p0(i64 4, ptr %11) #6
  %13 = load ptr, ptr %5, align 8, !tbaa !3
  %14 = call i32 @arkLs_AccessARKODELMem(ptr noundef %13, ptr noundef @__func__.ARKBBDPrecGetWorkSpace, ptr noundef %8, ptr noundef %9)
  store i32 %14, ptr %11, align 4, !tbaa !11
  %15 = load i32, ptr %11, align 4, !tbaa !11
  %16 = icmp ne i32 %15, 0
  br i1 %16, label %17, label %19

17:                                               ; preds = %3
  %18 = load i32, ptr %11, align 4, !tbaa !11
  store i32 %18, ptr %4, align 4
  store i32 1, ptr %12, align 4
  br label %38

19:                                               ; preds = %3
  %20 = load ptr, ptr %9, align 8, !tbaa !66
  %21 = getelementptr inbounds nuw %struct.ARKLsMemRec, ptr %20, i32 0, i32 31
  %22 = load ptr, ptr %21, align 8, !tbaa !70
  %23 = icmp eq ptr %22, null
  br i1 %23, label %24, label %26

24:                                               ; preds = %19
  %25 = load ptr, ptr %8, align 8, !tbaa !13
  call void (ptr, i32, i32, ptr, ptr, ptr, ...) @arkProcessError(ptr noundef %25, i32 noundef -5, i32 noundef 343, ptr noundef @__func__.ARKBBDPrecGetWorkSpace, ptr noundef @.str, ptr noundef @.str.4)
  store i32 -5, ptr %4, align 4
  store i32 1, ptr %12, align 4
  br label %38

26:                                               ; preds = %19
  %27 = load ptr, ptr %9, align 8, !tbaa !66
  %28 = getelementptr inbounds nuw %struct.ARKLsMemRec, ptr %27, i32 0, i32 31
  %29 = load ptr, ptr %28, align 8, !tbaa !70
  store ptr %29, ptr %10, align 8, !tbaa !28
  %30 = load ptr, ptr %10, align 8, !tbaa !28
  %31 = getelementptr inbounds nuw %struct.ARKBBDPrecDataRec, ptr %30, i32 0, i32 16
  %32 = load i64, ptr %31, align 8, !tbaa !52
  %33 = load ptr, ptr %6, align 8, !tbaa !75
  store i64 %32, ptr %33, align 8, !tbaa !7
  %34 = load ptr, ptr %10, align 8, !tbaa !28
  %35 = getelementptr inbounds nuw %struct.ARKBBDPrecDataRec, ptr %34, i32 0, i32 17
  %36 = load i64, ptr %35, align 8, !tbaa !53
  %37 = load ptr, ptr %7, align 8, !tbaa !75
  store i64 %36, ptr %37, align 8, !tbaa !7
  store i32 0, ptr %4, align 4
  store i32 1, ptr %12, align 4
  br label %38

38:                                               ; preds = %26, %24, %17
  call void @llvm.lifetime.end.p0(i64 4, ptr %11) #6
  call void @llvm.lifetime.end.p0(i64 8, ptr %10) #6
  call void @llvm.lifetime.end.p0(i64 8, ptr %9) #6
  call void @llvm.lifetime.end.p0(i64 8, ptr %8) #6
  %39 = load i32, ptr %4, align 4
  ret i32 %39
}