; Function Attrs: nounwind uwtable
define i32 @ARKBBDPrecGetWorkSpace(ptr noundef %0, ptr noundef writeonly captures(none) %1, ptr noundef writeonly captures(none) %2) local_unnamed_addr #0 {
  %4 = alloca ptr, align 8
  %5 = alloca ptr, align 8
  call void @llvm.lifetime.start.p0(i64 8, ptr nonnull %4) #9
  call void @llvm.lifetime.start.p0(i64 8, ptr nonnull %5) #9
  %6 = call i32 @arkLs_AccessARKODELMem(ptr noundef %0, ptr noundef nonnull @__func__.ARKBBDPrecGetWorkSpace, ptr noundef nonnull %4, ptr noundef nonnull %5) #9
  %.not = icmp eq i32 %6, 0
  br i1 %.not, label %7, label %19

7:                                                ; preds = %3
  %8 = load ptr, ptr %5, align 8, !tbaa !62
  %9 = getelementptr inbounds nuw i8, ptr %8, i64 232
  %10 = load ptr, ptr %9, align 8, !tbaa !66
  %11 = icmp eq ptr %10, null
  br i1 %11, label %12, label %14

12:                                               ; preds = %7
  %13 = load ptr, ptr %4, align 8, !tbaa !3
  call void (ptr, i32, i32, ptr, ptr, ptr, ...) @arkProcessError(ptr noundef %13, i32 noundef -5, i32 noundef 343, ptr noundef nonnull @__func__.ARKBBDPrecGetWorkSpace, ptr noundef nonnull @.str, ptr noundef nonnull @.str.4) #9
  br label %19

14:                                               ; preds = %7
  %15 = getelementptr inbounds nuw i8, ptr %10, i64 128
  %16 = load i64, ptr %15, align 8, !tbaa !49
  store i64 %16, ptr %1, align 8, !tbaa !48
  %17 = getelementptr inbounds nuw i8, ptr %10, i64 136
  %18 = load i64, ptr %17, align 8, !tbaa !50
  store i64 %18, ptr %2, align 8, !tbaa !48
  br label %19

19:                                               ; preds = %3, %14, %12
  %.0 = phi i32 [ -5, %12 ], [ 0, %14 ], [ %6, %3 ]
  call void @llvm.lifetime.end.p0(i64 8, ptr nonnull %5) #9
  call void @llvm.lifetime.end.p0(i64 8, ptr nonnull %4) #9
  ret i32 %.0
}